; Function Attrs: mustprogress nofree norecurse nosync nounwind memory(readwrite, inaccessiblemem: none) uwtable
define void @_ZNK3gmx17TranslateAndScale4Impl9transformENS_8ArrayRefINS_11BasicVectorIfEEEE(ptr nocapture noundef nonnull readonly align 4 dereferenceable(24) %0, ptr %1, ptr readnone %2) local_unnamed_addr #10 align 2 {
  %.not12 = icmp eq ptr %1, %2
  br i1 %.not12, label %._crit_edge, label %.lr.ph

.lr.ph:                                           ; preds = %3
  %4 = getelementptr inbounds i8, ptr %0, i64 12
  %5 = getelementptr inbounds i8, ptr %0, i64 20
  %6 = getelementptr inbounds i8, ptr %0, i64 4
  %7 = getelementptr inbounds i8, ptr %0, i64 8
  br label %8

8:                                                ; preds = %.lr.ph, %8
  %.sroa.0.013 = phi ptr [ %1, %.lr.ph ], [ %25, %8 ]
  %9 = getelementptr inbounds i8, ptr %.sroa.0.013, i64 4
  %10 = load <2 x float>, ptr %.sroa.0.013, align 4
  %11 = load <2 x float>, ptr %4, align 4
  %12 = fadd <2 x float> %10, %11
  %13 = getelementptr inbounds i8, ptr %.sroa.0.013, i64 8
  %14 = load float, ptr %13, align 4
  %15 = load float, ptr %5, align 4
  %16 = fadd float %14, %15
  store <2 x float> %12, ptr %.sroa.0.013, align 4
  store float %16, ptr %13, align 4
  %17 = load float, ptr %0, align 4
  %18 = extractelement <2 x float> %12, i64 0
  %19 = fmul float %17, %18
  store float %19, ptr %.sroa.0.013, align 4
  %20 = load float, ptr %6, align 4
  %21 = extractelement <2 x float> %12, i64 1
  %22 = fmul float %20, %21
  store float %22, ptr %9, align 4
  %23 = load float, ptr %7, align 4
  %24 = fmul float %16, %23
  store float %24, ptr %13, align 4
  %25 = getelementptr inbounds i8, ptr %.sroa.0.013, i64 12
  %.not = icmp eq ptr %25, %2
  br i1 %.not, label %._crit_edge, label %8

._crit_edge:                                      ; preds = %8, %3
  ret void
}